(lp0
(lp1
F1.0
aF0.058
aa(lp2
F1.0
aF0.106
aa(lp3
F1.0
aF0.19
aa(lp4
F1.0
aF0.25
aa(lp5
F1.0
aF0.342
aa(lp6
F1.0
aF0.38
aa(lp7
F1.0
aF0.444
aa(lp8
F1.0
aF0.5
aa(lp9
F1.0
aF0.548
aa(lp10
F1.0
aF0.576
aa(lp11
F1.0
aF0.594
aa(lp12
F1.0
aF0.61
aa(lp13
F1.0
aF0.618
aa(lp14
F1.0
aF0.638
aa(lp15
F1.0
aF0.672
aa(lp16
F1.0
aF0.826
aa(lp17
F1.0
aF0.756
aa(lp18
F1.0
aF0.792
aa(lp19
F1.0
aF0.834
aa(lp20
F1.0
aF0.864
aa(lp21
F1.0
aF0.896
aa(lp22
F1.0
aF0.912
aa(lp23
F1.0
aF0.956
aa(lp24
F1.0
aF0.074
aa(lp25
F1.0
aF0.102
aa(lp26
F1.0
aF0.11
aa(lp27
F1.0
aF0.128
aa(lp28
F1.0
aF0.216
aa(lp29
F1.0
aF0.246
aa(lp30
F1.0
aF0.068
aa(lp31
F1.0
aF0.066
aa(lp32
F1.0
aF0.064
aa(lp33
F1.0
aF0.084
aa(lp34
F1.0
aF0.112
aa(lp35
F1.0
aF0.206
aa(lp36
F1.0
aF0.224
aa(lp37
F1.0
aF0.28
aa(lp38
F1.0
aF0.318
aa(lp39
F1.0
aF0.348
aa(lp40
F1.0
aF0.37
aa(lp41
F1.0
aF0.258
aa(lp42
F1.0
aF0.148
aa(lp43
F1.0
aF0.192
aa(lp44
F1.0
aF0.282
aa(lp45
F1.0
aF0.126
aa(lp46
F1.0
aF0.158
aa(lp47
F1.0
aF0.164
aa(lp48
F1.0
aF0.168
aa(lp49
F1.0
aF0.146
aa(lp50
F1.0
aF0.256
aa(lp51
F1.0
aF0.314
aa(lp52
F1.0
aF0.334
aa(lp53
F1.0
aF0.344
aa(lp54
F1.0
aF0.432
aa(lp55
F1.0
aF0.448
aa(lp56
F1.0
aF0.464
aa(lp57
F1.0
aF0.396
aa(lp58
F1.0
aF0.432
aa(lp59
F1.0
aF0.544
aa(lp60
F1.0
aF0.562
aa(lp61
F1.0
aF0.372
aa(lp62
F1.0
aF0.49
aa(lp63
F1.0
aF0.536
aa(lp64
F1.0
aF0.652
aa(lp65
F1.0
aF0.6
aa(lp66
F1.0
aF0.694
aa(lp67
F1.0
aF0.728
aa(lp68
F1.0
aF0.732
aa(lp69
F1.0
aF0.7
aa(lp70
F1.0
aF0.762
aa(lp71
F1.0
aF0.896
aa(lp72
F1.0
aF0.87
aa(lp73
F1.0
aF0.822
aa(lp74
F1.0
aF0.906
aa(lp75
F1.0
aF0.82
aa(lp76
F1.0
aF0.888
aa(lp77
F1.0
aF0.736
aa(lp78
F1.0
aF0.658
aa(lp79
F1.0
aF0.53
aa(lp80
F1.0
aF0.592
aa(lp81
F1.0
aF0.532
aa(lp82
F1.0
aF0.406
aa(lp83
F1.0
aF0.722
aa(lp84
F1.0
aF0.652
aa(lp85
F1.0
aF0.802
aa(lp86
F1.0
aF0.864
aa(lp87
F1.0
aF0.874
aa(lp88
F1.0
aF0.898
aa(lp89
F1.0
aF0.948
aa(lp90
F1.0
aF0.948
aa(lp91
F1.0
aF0.138
aa(lp92
F1.0
aF0.142
aa(lp93
F1.0
aF0.022
aa(lp94
F1.0
aF0.074
aa(lp95
F1.0
aF0.032
aa(lp96
F1.0
aF0.042
aa(lp97
F1.0
aF0.1
aa(lp98
F1.0
aF0.97
aa(lp99
F1.0
aF0.928
aa.